target datalayout = "e-m:e-p270:32:32-p271:32:32-p272:64:64-i64:64-i128:128-f80:128-n8:16:32:64-S128"
target triple = "x86_64-pc-linux-gnu"

%struct.Qureg = type { i32, i32, i32, i64, i64, i32, i32, %struct.ComplexArray, %struct.ComplexArray, %struct.ComplexArray, ptr, ptr, ptr, ptr, ptr, ptr }
%struct.ComplexArray = type { ptr, ptr }

@__func__.multiControlledPhaseShift = private unnamed_addr constant [26 x i8] c"multiControlledPhaseShift\00", align 1

; Function Attrs: nounwind uwtable
define void @multiControlledPhaseShift(ptr noundef byval(%struct.Qureg) align 8 %0, ptr noundef %1, i32 noundef %2, double noundef %3) #0 {
  %5 = alloca ptr, align 8
  %6 = alloca i32, align 4
  %7 = alloca double, align 8
  %8 = alloca i32, align 4
  store ptr %1, ptr %5, align 8, !tbaa !27
  store i32 %2, ptr %6, align 4, !tbaa !4
  store double %3, ptr %7, align 8, !tbaa !25
  %9 = load ptr, ptr %5, align 8, !tbaa !27
  %10 = load i32, ptr %6, align 4, !tbaa !4
  call void @validateMultiQubits(ptr noundef byval(%struct.Qureg) align 8 %0, ptr noundef %9, i32 noundef %10, ptr noundef @__func__.multiControlledPhaseShift)
  %11 = load ptr, ptr %5, align 8, !tbaa !27
  %12 = load i32, ptr %6, align 4, !tbaa !4
  %13 = load double, ptr %7, align 8, !tbaa !25
  call void @statevec_multiControlledPhaseShift(ptr noundef byval(%struct.Qureg) align 8 %0, ptr noundef %11, i32 noundef %12, double noundef %13)
  %14 = getelementptr inbounds nuw %struct.Qureg, ptr %0, i32 0, i32 0
  %15 = load i32, ptr %14, align 8, !tbaa !13
  %16 = icmp ne i32 %15, 0
  br i1 %16, label %17, label %31

17:                                               ; preds = %4
  call void @llvm.lifetime.start.p0(i64 4, ptr %8) #7
  %18 = getelementptr inbounds nuw %struct.Qureg, ptr %0, i32 0, i32 1
  %19 = load i32, ptr %18, align 4, !tbaa !18
  store i32 %19, ptr %8, align 4, !tbaa !4
  %20 = load ptr, ptr %5, align 8, !tbaa !27
  %21 = load i32, ptr %6, align 4, !tbaa !4
  %22 = load i32, ptr %8, align 4, !tbaa !4
  call void @shiftIndices(ptr noundef %20, i32 noundef %21, i32 noundef %22)
  %23 = load ptr, ptr %5, align 8, !tbaa !27
  %24 = load i32, ptr %6, align 4, !tbaa !4
  %25 = load double, ptr %7, align 8, !tbaa !25
  %26 = fneg double %25
  call void @statevec_multiControlledPhaseShift(ptr noundef byval(%struct.Qureg) align 8 %0, ptr noundef %23, i32 noundef %24, double noundef %26)
  %27 = load ptr, ptr %5, align 8, !tbaa !27
  %28 = load i32, ptr %6, align 4, !tbaa !4
  %29 = load i32, ptr %8, align 4, !tbaa !4
  %30 = sub nsw i32 0, %29
  call void @shiftIndices(ptr noundef %27, i32 noundef %28, i32 noundef %30)
  call void @llvm.lifetime.end.p0(i64 4, ptr %8) #7
  br label %31

31:                                               ; preds = %17, %4
  %32 = load ptr, ptr %5, align 8, !tbaa !27
  %33 = load i32, ptr %6, align 4, !tbaa !4
  %34 = sub nsw i32 %33, 1
  %35 = load ptr, ptr %5, align 8, !tbaa !27
  %36 = load i32, ptr %6, align 4, !tbaa !4
  %37 = sub nsw i32 %36, 1
  %38 = sext i32 %37 to i64
  %39 = getelementptr inbounds i32, ptr %35, i64 %38
  %40 = load i32, ptr %39, align 4, !tbaa !4
  %41 = load double, ptr %7, align 8, !tbaa !25
  call void @qasm_recordMultiControlledParamGate(ptr noundef byval(%struct.Qureg) align 8 %0, i32 noundef 11, ptr noundef %32, i32 noundef %34, i32 noundef %40, double noundef %41)
  ret void
}