; Function Attrs: nounwind uwtable
define void @multiControlledPhaseShift(ptr noundef readonly byval(%struct.Qureg) align 8 captures(none) %0, ptr noundef %1, i32 noundef %2, double noundef %3) local_unnamed_addr #0 {
  tail call void @validateMultiQubits(ptr noundef nonnull byval(%struct.Qureg) align 8 %0, ptr noundef %1, i32 noundef %2, ptr noundef nonnull @__func__.multiControlledPhaseShift) #17
  tail call void @statevec_multiControlledPhaseShift(ptr noundef nonnull byval(%struct.Qureg) align 8 %0, ptr noundef %1, i32 noundef %2, double noundef %3) #17
  %5 = load i32, ptr %0, align 8, !tbaa !12
  %.not = icmp eq i32 %5, 0
  br i1 %.not, label %11, label %6

6:                                                ; preds = %4
  %7 = getelementptr inbounds nuw i8, ptr %0, i64 4
  %8 = load i32, ptr %7, align 4, !tbaa !17
  tail call void @shiftIndices(ptr noundef %1, i32 noundef %2, i32 noundef %8) #17
  %9 = fneg double %3
  tail call void @statevec_multiControlledPhaseShift(ptr noundef nonnull byval(%struct.Qureg) align 8 %0, ptr noundef %1, i32 noundef %2, double noundef %9) #17
  %10 = sub nsw i32 0, %8
  tail call void @shiftIndices(ptr noundef %1, i32 noundef %2, i32 noundef %10) #17
  br label %11

11:                                               ; preds = %6, %4
  %12 = add nsw i32 %2, -1
  %13 = sext i32 %12 to i64
  %14 = getelementptr inbounds i32, ptr %1, i64 %13
  %15 = load i32, ptr %14, align 4, !tbaa !20
  tail call void @qasm_recordMultiControlledParamGate(ptr noundef nonnull byval(%struct.Qureg) align 8 %0, i32 noundef 11, ptr noundef %1, i32 noundef %12, i32 noundef %15, double noundef %3) #17
  ret void
}